; Function Attrs: mustprogress uwtable
define noundef zeroext i1 @_ZN5Gluco10SimpSolver7impliedERKNS_3vecINS_3LitEEE(ptr noundef nonnull align 8 dereferenceable(1484) %0, ptr nocapture noundef nonnull readonly align 8 dereferenceable(16) %1) local_unnamed_addr #2 align 2 {
  %3 = getelementptr inbounds i8, ptr %0, i64 712
  %4 = getelementptr inbounds i8, ptr %0, i64 688
  %5 = load i32, ptr %4, align 8
  %6 = getelementptr inbounds i8, ptr %0, i64 720
  %7 = load i32, ptr %6, align 8
  %8 = getelementptr inbounds i8, ptr %0, i64 724
  %9 = load i32, ptr %8, align 4
  %10 = icmp eq i32 %7, %9
  br i1 %10, label %11, label %._ZN5Gluco3vecIiE8capacityEi.exit_crit_edge.i

._ZN5Gluco3vecIiE8capacityEi.exit_crit_edge.i:    ; preds = %2
  %.pre.i = load ptr, ptr %3, align 8
  br label %_ZN5Gluco3vecIiE4pushERKi.exit

11:                                               ; preds = %2
  %12 = ashr i32 %7, 1
  %13 = and i32 %12, -2
  %14 = tail call i32 @llvm.smax.i32(i32 %13, i32 0)
  %15 = add nuw nsw i32 %14, 2
  %16 = sub nsw i32 2147483647, %7
  %17 = icmp ugt i32 %15, %16
  br i1 %17, label %29, label %18

18:                                               ; preds = %11
  %19 = load ptr, ptr %3, align 8
  %20 = add nsw i32 %15, %7
  store i32 %20, ptr %8, align 4
  %21 = sext i32 %20 to i64
  %22 = shl nsw i64 %21, 2
  %23 = tail call ptr @realloc(ptr noundef %19, i64 noundef %22) #26
  store ptr %23, ptr %3, align 8
  %24 = icmp eq ptr %23, null
  br i1 %24, label %25, label %._ZN5Gluco3vecIiE4pushERKi.exit_crit_edge

._ZN5Gluco3vecIiE4pushERKi.exit_crit_edge:        ; preds = %18
  %.pre = load i32, ptr %6, align 8
  br label %_ZN5Gluco3vecIiE4pushERKi.exit

25:                                               ; preds = %18
  %26 = tail call ptr @__errno_location() #22
  %27 = load i32, ptr %26, align 4
  %28 = icmp eq i32 %27, 12
  tail call void @llvm.assume(i1 %28)
  br label %29

29:                                               ; preds = %25, %11
  %30 = tail call ptr @__cxa_allocate_exception(i64 1) #23
  tail call void @__cxa_throw(ptr %30, ptr nonnull @_ZTIN5Gluco20OutOfMemoryExceptionE, ptr null) #24
  unreachable

_ZN5Gluco3vecIiE4pushERKi.exit:                   ; preds = %._ZN5Gluco3vecIiE4pushERKi.exit_crit_edge, %._ZN5Gluco3vecIiE8capacityEi.exit_crit_edge.i
  %31 = phi i32 [ %7, %._ZN5Gluco3vecIiE8capacityEi.exit_crit_edge.i ], [ %.pre, %._ZN5Gluco3vecIiE4pushERKi.exit_crit_edge ]
  %32 = phi ptr [ %.pre.i, %._ZN5Gluco3vecIiE8capacityEi.exit_crit_edge.i ], [ %23, %._ZN5Gluco3vecIiE4pushERKi.exit_crit_edge ]
  %33 = add nsw i32 %31, 1
  store i32 %33, ptr %6, align 8
  %34 = sext i32 %31 to i64
  %35 = getelementptr inbounds i32, ptr %32, i64 %34
  store i32 %5, ptr %35, align 4
  %36 = getelementptr inbounds i8, ptr %1, i64 8
  %37 = load i32, ptr %36, align 8
  %38 = icmp sgt i32 %37, 0
  br i1 %38, label %.lr.ph, label %._crit_edge

.lr.ph:                                           ; preds = %_ZN5Gluco3vecIiE4pushERKi.exit
  %39 = getelementptr inbounds i8, ptr %0, i64 632
  br label %40

40:                                               ; preds = %.lr.ph, %54
  %41 = phi i32 [ %37, %.lr.ph ], [ %55, %54 ]
  %indvars.iv = phi i64 [ 0, %.lr.ph ], [ %indvars.iv.next, %54 ]
  %42 = load ptr, ptr %1, align 8
  %43 = getelementptr inbounds %"struct.Gluco::Lit", ptr %42, i64 %indvars.iv
  %.sroa.03.0.copyload = load i32, ptr %43, align 4
  %44 = ashr i32 %.sroa.03.0.copyload, 1
  %45 = load ptr, ptr %39, align 8
  %46 = sext i32 %44 to i64
  %47 = getelementptr inbounds %"class.Gluco::lbool", ptr %45, i64 %46
  %48 = load i8, ptr %47, align 1
  %49 = trunc i32 %.sroa.03.0.copyload to i8
  %50 = and i8 %49, 1
  %51 = xor i8 %48, %50
  switch i8 %51, label %52 [
    i8 0, label %.loopexit
    i8 1, label %54
  ]

52:                                               ; preds = %40
  %53 = xor i32 %.sroa.03.0.copyload, 1
  tail call void @_ZN5Gluco6Solver16uncheckedEnqueueENS_3LitEj(ptr noundef nonnull align 8 dereferenceable(1216) %0, i32 %53, i32 noundef -1)
  %.pre20 = load i32, ptr %36, align 8
  br label %54

54:                                               ; preds = %40, %52
  %55 = phi i32 [ %41, %40 ], [ %.pre20, %52 ]
  %indvars.iv.next = add nuw nsw i64 %indvars.iv, 1
  %56 = sext i32 %55 to i64
  %57 = icmp slt i64 %indvars.iv.next, %56
  br i1 %57, label %40, label %._crit_edge, !llvm.loop !17

._crit_edge:                                      ; preds = %54, %_ZN5Gluco3vecIiE4pushERKi.exit
  %58 = tail call noundef i32 @_ZN5Gluco6Solver9propagateEv(ptr noundef nonnull align 8 dereferenceable(1216) %0)
  %59 = icmp ne i32 %58, -1
  br label %.loopexit

.loopexit:                                        ; preds = %40, %._crit_edge
  %.0 = phi i1 [ %59, %._crit_edge ], [ false, %40 ]
  tail call void @_ZN5Gluco6Solver11cancelUntilEi(ptr noundef nonnull align 8 dereferenceable(1216) %0, i32 noundef 0)
  ret i1 %.0
}